target datalayout = "e-m:e-p270:32:32-p271:32:32-p272:64:64-i64:64-i128:128-f80:128-n8:16:32:64-S128"
target triple = "x86_64-pc-linux-gnu"

@.str = private unnamed_addr constant [25 x i8] c"../openssl/test/ectest.c\00", align 1
@.str.27 = private unnamed_addr constant [2 x i8] c"0\00", align 1
@.str.70 = private unnamed_addr constant [62 x i8] c"group = d2i_ECPKParameters(NULL, &b1, sizeof(params_cf_fail))\00", align 1
@.str.71 = private unnamed_addr constant [30 x i8] c"EC_GROUP_get0_cofactor(group)\00", align 1
@.str.72 = private unnamed_addr constant [64 x i8] c"group = d2i_ECPKParameters(&group, &b2, sizeof(params_cf_pass))\00", align 1
@.str.73 = private unnamed_addr constant [51 x i8] c"BN_hex2bn(&cf, \2212bc94785251297abfafddf1565100da\22)\00", align 1
@.str.74 = private unnamed_addr constant [33 x i8] c"12bc94785251297abfafddf1565100da\00", align 1
@.str.75 = private unnamed_addr constant [3 x i8] c"cf\00", align 1

; Function Attrs: nounwind uwtable
define internal i32 @cofactor_range_test() #0 {
  %1 = alloca ptr, align 8
  %2 = alloca ptr, align 8
  %3 = alloca i32, align 4
  %4 = alloca ptr, align 8
  %5 = alloca ptr, align 8
  call void @llvm.lifetime.start.p0(i64 8, ptr %1) #7
  store ptr null, ptr %1, align 8, !tbaa !10
  call void @llvm.lifetime.start.p0(i64 8, ptr %2) #7
  store ptr null, ptr %2, align 8, !tbaa !26
  call void @llvm.lifetime.start.p0(i64 4, ptr %3) #7
  store i32 0, ptr %3, align 4, !tbaa !16
  call void @llvm.lifetime.start.p0(i64 8, ptr %4) #7
  store ptr @params_cf_fail, ptr %4, align 8, !tbaa !14
  call void @llvm.lifetime.start.p0(i64 8, ptr %5) #7
  store ptr @params_cf_pass, ptr %5, align 8, !tbaa !14
  %6 = call ptr @d2i_ECPKParameters(ptr noundef null, ptr noundef %4, i64 noundef 208)
  store ptr %6, ptr %1, align 8, !tbaa !10
  %7 = call i32 @test_ptr(ptr noundef @.str, i32 noundef 2245, ptr noundef @.str.70, ptr noundef %6)
  %8 = icmp ne i32 %7, 0
  br i1 %8, label %9, label %28

9:                                                ; preds = %0
  %10 = load ptr, ptr %1, align 8, !tbaa !10
  %11 = call ptr @EC_GROUP_get0_cofactor(ptr noundef %10)
  %12 = call i32 @test_BN_eq_zero(ptr noundef @.str, i32 noundef 2246, ptr noundef @.str.71, ptr noundef %11)
  %13 = icmp ne i32 %12, 0
  br i1 %13, label %14, label %28

14:                                               ; preds = %9
  %15 = call ptr @d2i_ECPKParameters(ptr noundef %1, ptr noundef %5, i64 noundef 208)
  store ptr %15, ptr %1, align 8, !tbaa !10
  %16 = call i32 @test_ptr(ptr noundef @.str, i32 noundef 2248, ptr noundef @.str.72, ptr noundef %15)
  %17 = icmp ne i32 %16, 0
  br i1 %17, label %18, label %28

18:                                               ; preds = %14
  %19 = call i32 @BN_hex2bn(ptr noundef %2, ptr noundef @.str.74)
  %20 = call i32 @test_int_gt(ptr noundef @.str, i32 noundef 2249, ptr noundef @.str.73, ptr noundef @.str.27, i32 noundef %19, i32 noundef 0)
  %21 = icmp ne i32 %20, 0
  br i1 %21, label %22, label %28

22:                                               ; preds = %18
  %23 = load ptr, ptr %2, align 8, !tbaa !26
  %24 = load ptr, ptr %1, align 8, !tbaa !10
  %25 = call ptr @EC_GROUP_get0_cofactor(ptr noundef %24)
  %26 = call i32 @test_BN_eq(ptr noundef @.str, i32 noundef 2250, ptr noundef @.str.75, ptr noundef @.str.71, ptr noundef %23, ptr noundef %25)
  %27 = icmp ne i32 %26, 0
  br i1 %27, label %29, label %28

28:                                               ; preds = %22, %18, %14, %9, %0
  br label %30

29:                                               ; preds = %22
  store i32 1, ptr %3, align 4, !tbaa !16
  br label %30

30:                                               ; preds = %29, %28
  %31 = load ptr, ptr %2, align 8, !tbaa !26
  call void @BN_free(ptr noundef %31)
  %32 = load ptr, ptr %1, align 8, !tbaa !10
  call void @EC_GROUP_free(ptr noundef %32)
  %33 = load i32, ptr %3, align 4, !tbaa !16
  call void @llvm.lifetime.end.p0(i64 8, ptr %5) #7
  call void @llvm.lifetime.end.p0(i64 8, ptr %4) #7
  call void @llvm.lifetime.end.p0(i64 4, ptr %3) #7
  call void @llvm.lifetime.end.p0(i64 8, ptr %2) #7
  call void @llvm.lifetime.end.p0(i64 8, ptr %1) #7
  ret i32 %33
}