; Function Attrs: nounwind uwtable
define internal range(i32 0, 2) i32 @cofactor_range_test() #0 {
  %1 = alloca ptr, align 8
  %2 = alloca ptr, align 8
  %3 = alloca ptr, align 8
  %4 = alloca ptr, align 8
  call void @llvm.lifetime.start.p0(i64 8, ptr nonnull %1) #7
  call void @llvm.lifetime.start.p0(i64 8, ptr nonnull %2) #7
  store ptr null, ptr %2, align 8, !tbaa !12
  call void @llvm.lifetime.start.p0(i64 8, ptr nonnull %3) #7
  store ptr @params_cf_fail, ptr %3, align 8, !tbaa !10
  call void @llvm.lifetime.start.p0(i64 8, ptr nonnull %4) #7
  store ptr @params_cf_pass, ptr %4, align 8, !tbaa !10
  %5 = call ptr @d2i_ECPKParameters(ptr noundef null, ptr noundef nonnull %3, i64 noundef 208) #7
  store ptr %5, ptr %1, align 8, !tbaa !14
  %6 = call i32 @test_ptr(ptr noundef nonnull @.str, i32 noundef 2245, ptr noundef nonnull @.str.70, ptr noundef %5) #7
  %.not = icmp eq i32 %6, 0
  br i1 %.not, label %20, label %7

7:                                                ; preds = %0
  %8 = call ptr @EC_GROUP_get0_cofactor(ptr noundef %5) #7
  %9 = call i32 @test_BN_eq_zero(ptr noundef nonnull @.str, i32 noundef 2246, ptr noundef nonnull @.str.71, ptr noundef %8) #7
  %.not1 = icmp eq i32 %9, 0
  br i1 %.not1, label %20, label %10

10:                                               ; preds = %7
  %11 = call ptr @d2i_ECPKParameters(ptr noundef nonnull %1, ptr noundef nonnull %4, i64 noundef 208) #7
  store ptr %11, ptr %1, align 8, !tbaa !14
  %12 = call i32 @test_ptr(ptr noundef nonnull @.str, i32 noundef 2248, ptr noundef nonnull @.str.72, ptr noundef %11) #7
  %.not2 = icmp eq i32 %12, 0
  br i1 %.not2, label %20, label %13

13:                                               ; preds = %10
  %14 = call i32 @BN_hex2bn(ptr noundef nonnull %2, ptr noundef nonnull @.str.74) #7
  %15 = call i32 @test_int_gt(ptr noundef nonnull @.str, i32 noundef 2249, ptr noundef nonnull @.str.73, ptr noundef nonnull @.str.27, i32 noundef %14, i32 noundef 0) #7
  %.not3 = icmp eq i32 %15, 0
  %.pre5 = load ptr, ptr %2, align 8, !tbaa !12
  br i1 %.not3, label %20, label %16

16:                                               ; preds = %13
  %17 = load ptr, ptr %1, align 8, !tbaa !14
  %18 = call ptr @EC_GROUP_get0_cofactor(ptr noundef %17) #7
  %19 = call i32 @test_BN_eq(ptr noundef nonnull @.str, i32 noundef 2250, ptr noundef nonnull @.str.75, ptr noundef nonnull @.str.71, ptr noundef %.pre5, ptr noundef %18) #7
  %.not4 = icmp ne i32 %19, 0
  %spec.select = zext i1 %.not4 to i32
  %.pre = load ptr, ptr %2, align 8, !tbaa !12
  br label %20

20:                                               ; preds = %16, %0, %7, %10, %13
  %21 = phi ptr [ %.pre5, %13 ], [ null, %10 ], [ null, %7 ], [ null, %0 ], [ %.pre, %16 ]
  %.0 = phi i32 [ 0, %13 ], [ 0, %10 ], [ 0, %7 ], [ 0, %0 ], [ %spec.select, %16 ]
  call void @BN_free(ptr noundef %21) #7
  %22 = load ptr, ptr %1, align 8, !tbaa !14
  call void @EC_GROUP_free(ptr noundef %22) #7
  call void @llvm.lifetime.end.p0(i64 8, ptr nonnull %4) #7
  call void @llvm.lifetime.end.p0(i64 8, ptr nonnull %3) #7
  call void @llvm.lifetime.end.p0(i64 8, ptr nonnull %2) #7
  call void @llvm.lifetime.end.p0(i64 8, ptr nonnull %1) #7
  ret i32 %.0
}